target datalayout = "e-m:e-p270:32:32-p271:32:32-p272:64:64-i64:64-i128:128-f80:128-n8:16:32:64-S128"
target triple = "x86_64-pc-linux-gnu"

%struct.quic_srtm_st = type { ptr, ptr, ptr, i8 }

@.str = private unnamed_addr constant [32 x i8] c"../openssl/ssl/quic/quic_srtm.c\00", align 1

; Function Attrs: inlinehint nounwind uwtable
define internal void @lh_SRTM_ITEM_doall(ptr noundef %0, ptr noundef %1) #3 {
  %3 = alloca ptr, align 8
  %4 = alloca ptr, align 8
  store ptr %0, ptr %3, align 8, !tbaa !29
  store ptr %1, ptr %4, align 8, !tbaa !21
  %5 = load ptr, ptr %3, align 8, !tbaa !29
  %6 = load ptr, ptr %4, align 8, !tbaa !21
  call void @OPENSSL_LH_doall(ptr noundef %5, ptr noundef %6)
  ret void
}

; Function Attrs: inlinehint nounwind uwtable
define internal void @lh_SRTM_ITEM_free(ptr noundef %0) #3 {
  %2 = alloca ptr, align 8
  store ptr %0, ptr %2, align 8, !tbaa !29
  %3 = load ptr, ptr %2, align 8, !tbaa !29
  call void @OPENSSL_LH_free(ptr noundef %3)
  ret void
}

; Function Attrs: nounwind uwtable
define void @ossl_quic_srtm_free(ptr noundef %0) #0 {
  %2 = alloca ptr, align 8
  store ptr %0, ptr %2, align 8, !tbaa !10
  %3 = load ptr, ptr %2, align 8, !tbaa !10
  %4 = icmp eq ptr %3, null
  br i1 %4, label %5, label %6

5:                                                ; preds = %1
  br label %26

6:                                                ; preds = %1
  %7 = load ptr, ptr %2, align 8, !tbaa !10
  %8 = getelementptr inbounds nuw %struct.quic_srtm_st, ptr %7, i32 0, i32 2
  %9 = load ptr, ptr %8, align 8, !tbaa !20
  call void @lh_SRTM_ITEM_free(ptr noundef %9)
  %10 = load ptr, ptr %2, align 8, !tbaa !10
  %11 = getelementptr inbounds nuw %struct.quic_srtm_st, ptr %10, i32 0, i32 1
  %12 = load ptr, ptr %11, align 8, !tbaa !19
  %13 = icmp ne ptr %12, null
  br i1 %13, label %14, label %21

14:                                               ; preds = %6
  %15 = load ptr, ptr %2, align 8, !tbaa !10
  %16 = getelementptr inbounds nuw %struct.quic_srtm_st, ptr %15, i32 0, i32 1
  %17 = load ptr, ptr %16, align 8, !tbaa !19
  call void @lh_SRTM_ITEM_doall(ptr noundef %17, ptr noundef @srtm_free_each)
  %18 = load ptr, ptr %2, align 8, !tbaa !10
  %19 = getelementptr inbounds nuw %struct.quic_srtm_st, ptr %18, i32 0, i32 1
  %20 = load ptr, ptr %19, align 8, !tbaa !19
  call void @lh_SRTM_ITEM_free(ptr noundef %20)
  br label %21

21:                                               ; preds = %14, %6
  %22 = load ptr, ptr %2, align 8, !tbaa !10
  %23 = getelementptr inbounds nuw %struct.quic_srtm_st, ptr %22, i32 0, i32 0
  %24 = load ptr, ptr %23, align 8, !tbaa !14
  call void @EVP_CIPHER_CTX_free(ptr noundef %24)
  %25 = load ptr, ptr %2, align 8, !tbaa !10
  call void @CRYPTO_free(ptr noundef %25, ptr noundef @.str, i32 noundef 176)
  br label %26

26:                                               ; preds = %21, %5
  ret void
}