; Function Attrs: nounwind uwtable
define void @ossl_quic_srtm_free(ptr noundef %0) local_unnamed_addr #0 {
  %2 = icmp eq ptr %0, null
  br i1 %2, label %12, label %3

3:                                                ; preds = %1
  %4 = getelementptr inbounds nuw i8, ptr %0, i64 16
  %5 = load ptr, ptr %4, align 8, !tbaa !12
  tail call void @OPENSSL_LH_free(ptr noundef %5) #9
  %6 = getelementptr inbounds nuw i8, ptr %0, i64 8
  %7 = load ptr, ptr %6, align 8, !tbaa !11
  %.not = icmp eq ptr %7, null
  br i1 %.not, label %10, label %8

8:                                                ; preds = %3
  tail call void @OPENSSL_LH_doall(ptr noundef nonnull %7, ptr noundef nonnull @srtm_free_each) #9
  %9 = load ptr, ptr %6, align 8, !tbaa !11
  tail call void @OPENSSL_LH_free(ptr noundef %9) #9
  br label %10

10:                                               ; preds = %8, %3
  %11 = load ptr, ptr %0, align 8, !tbaa !3
  tail call void @EVP_CIPHER_CTX_free(ptr noundef %11) #9
  tail call void @CRYPTO_free(ptr noundef nonnull %0, ptr noundef nonnull @.str, i32 noundef 176) #9
  br label %12

12:                                               ; preds = %1, %10
  ret void
}